; ModuleID = '9/869.c'
source_filename = "9/869.c"
target datalayout = "e-m:e-p270:32:32-p271:32:32-p272:64:64-i64:64-f80:128-n8:16:32:64-S128"
target triple = "x86_64-pc-linux-gnu"

@.str = private unnamed_addr constant [3 x i8] c"%d\00", align 1
@.str.1 = private unnamed_addr constant [6 x i8] c"%s %d\00", align 1
@.str.2 = private unnamed_addr constant [4 x i8] c"%s\0A\00", align 1

; Function Attrs: noinline nounwind uwtable
define dso_local i32 @main() #0 {
  %1 = alloca i32, align 4
  %2 = alloca i32, align 4
  %3 = alloca i32, align 4
  %4 = alloca i32, align 4
  %5 = alloca i32, align 4
  %6 = alloca i32, align 4
  %7 = alloca i32, align 4
  %8 = alloca i32, align 4
  %9 = alloca [100 x i32], align 16
  %10 = alloca [100 x i32], align 16
  %11 = alloca [10 x i8], align 1
  %12 = alloca [100 x [10 x i8]], align 16
  %13 = alloca [10 x i8], align 1
  %14 = alloca [100 x [10 x i8]], align 16
  store i32 0, i32* %1, align 4
  store i32 0, i32* %4, align 4
  store i32 0, i32* %7, align 4
  %15 = call i32 (i8*, ...) @__isoc99_scanf(i8* getelementptr inbounds ([3 x i8], [3 x i8]* @.str, i64 0, i64 0), i32* %3)
  store i32 0, i32* %2, align 4
  br label %16

16:                                               ; preds = %52, %0
  %17 = load i32, i32* %2, align 4
  %18 = load i32, i32* %3, align 4
  %19 = icmp slt i32 %17, %18
  br i1 %19, label %20, label %55

20:                                               ; preds = %16
  %21 = getelementptr inbounds [10 x i8], [10 x i8]* %11, i64 0, i64 0
  %22 = call i32 (i8*, ...) @__isoc99_scanf(i8* getelementptr inbounds ([6 x i8], [6 x i8]* @.str.1, i64 0, i64 0), i8* %21, i32* %6)
  %23 = load i32, i32* %6, align 4
  %24 = icmp sge i32 %23, 60
  br i1 %24, label %25, label %38

25:                                               ; preds = %20
  %26 = load i32, i32* %6, align 4
  %27 = load i32, i32* %4, align 4
  %28 = sext i32 %27 to i64
  %29 = getelementptr inbounds [100 x i32], [100 x i32]* %9, i64 0, i64 %28
  store i32 %26, i32* %29, align 4
  %30 = load i32, i32* %4, align 4
  %31 = sext i32 %30 to i64
  %32 = getelementptr inbounds [100 x [10 x i8]], [100 x [10 x i8]]* %12, i64 0, i64 %31
  %33 = getelementptr inbounds [10 x i8], [10 x i8]* %32, i64 0, i64 0
  %34 = getelementptr inbounds [10 x i8], [10 x i8]* %11, i64 0, i64 0
  %35 = call i8* @strcpy(i8* %33, i8* %34) #3
  %36 = load i32, i32* %4, align 4
  %37 = add nsw i32 %36, 1
  store i32 %37, i32* %4, align 4
  br label %51

38:                                               ; preds = %20
  %39 = load i32, i32* %6, align 4
  %40 = load i32, i32* %7, align 4
  %41 = sext i32 %40 to i64
  %42 = getelementptr inbounds [100 x i32], [100 x i32]* %10, i64 0, i64 %41
  store i32 %39, i32* %42, align 4
  %43 = load i32, i32* %7, align 4
  %44 = sext i32 %43 to i64
  %45 = getelementptr inbounds [100 x [10 x i8]], [100 x [10 x i8]]* %14, i64 0, i64 %44
  %46 = getelementptr inbounds [10 x i8], [10 x i8]* %45, i64 0, i64 0
  %47 = getelementptr inbounds [10 x i8], [10 x i8]* %11, i64 0, i64 0
  %48 = call i8* @strcpy(i8* %46, i8* %47) #3
  %49 = load i32, i32* %7, align 4
  %50 = add nsw i32 %49, 1
  store i32 %50, i32* %7, align 4
  br label %51

51:                                               ; preds = %38, %25
  br label %52

52:                                               ; preds = %51
  %53 = load i32, i32* %2, align 4
  %54 = add nsw i32 %53, 1
  store i32 %54, i32* %2, align 4
  br label %16

55:                                               ; preds = %16
  store i32 1, i32* %8, align 4
  br label %56

56:                                               ; preds = %124, %55
  %57 = load i32, i32* %8, align 4
  %58 = load i32, i32* %4, align 4
  %59 = icmp sle i32 %57, %58
  br i1 %59, label %60, label %127

60:                                               ; preds = %56
  store i32 0, i32* %2, align 4
  br label %61

61:                                               ; preds = %120, %60
  %62 = load i32, i32* %2, align 4
  %63 = load i32, i32* %4, align 4
  %64 = load i32, i32* %8, align 4
  %65 = sub nsw i32 %63, %64
  %66 = icmp slt i32 %62, %65
  br i1 %66, label %67, label %123

67:                                               ; preds = %61
  %68 = load i32, i32* %2, align 4
  %69 = sext i32 %68 to i64
  %70 = getelementptr inbounds [100 x i32], [100 x i32]* %9, i64 0, i64 %69
  %71 = load i32, i32* %70, align 4
  %72 = load i32, i32* %2, align 4
  %73 = add nsw i32 %72, 1
  %74 = sext i32 %73 to i64
  %75 = getelementptr inbounds [100 x i32], [100 x i32]* %9, i64 0, i64 %74
  %76 = load i32, i32* %75, align 4
  %77 = icmp slt i32 %71, %76
  br i1 %77, label %78, label %119

78:                                               ; preds = %67
  %79 = load i32, i32* %2, align 4
  %80 = add nsw i32 %79, 1
  %81 = sext i32 %80 to i64
  %82 = getelementptr inbounds [100 x i32], [100 x i32]* %9, i64 0, i64 %81
  %83 = load i32, i32* %82, align 4
  store i32 %83, i32* %5, align 4
  %84 = load i32, i32* %2, align 4
  %85 = sext i32 %84 to i64
  %86 = getelementptr inbounds [100 x i32], [100 x i32]* %9, i64 0, i64 %85
  %87 = load i32, i32* %86, align 4
  %88 = load i32, i32* %2, align 4
  %89 = add nsw i32 %88, 1
  %90 = sext i32 %89 to i64
  %91 = getelementptr inbounds [100 x i32], [100 x i32]* %9, i64 0, i64 %90
  store i32 %87, i32* %91, align 4
  %92 = load i32, i32* %5, align 4
  %93 = load i32, i32* %2, align 4
  %94 = sext i32 %93 to i64
  %95 = getelementptr inbounds [100 x i32], [100 x i32]* %9, i64 0, i64 %94
  store i32 %92, i32* %95, align 4
  %96 = getelementptr inbounds [10 x i8], [10 x i8]* %13, i64 0, i64 0
  %97 = load i32, i32* %2, align 4
  %98 = add nsw i32 %97, 1
  %99 = sext i32 %98 to i64
  %100 = getelementptr inbounds [100 x [10 x i8]], [100 x [10 x i8]]* %12, i64 0, i64 %99
  %101 = getelementptr inbounds [10 x i8], [10 x i8]* %100, i64 0, i64 0
  %102 = call i8* @strcpy(i8* %96, i8* %101) #3
  %103 = load i32, i32* %2, align 4
  %104 = add nsw i32 %103, 1
  %105 = sext i32 %104 to i64
  %106 = getelementptr inbounds [100 x [10 x i8]], [100 x [10 x i8]]* %12, i64 0, i64 %105
  %107 = getelementptr inbounds [10 x i8], [10 x i8]* %106, i64 0, i64 0
  %108 = load i32, i32* %2, align 4
  %109 = sext i32 %108 to i64
  %110 = getelementptr inbounds [100 x [10 x i8]], [100 x [10 x i8]]* %12, i64 0, i64 %109
  %111 = getelementptr inbounds [10 x i8], [10 x i8]* %110, i64 0, i64 0
  %112 = call i8* @strcpy(i8* %107, i8* %111) #3
  %113 = load i32, i32* %2, align 4
  %114 = sext i32 %113 to i64
  %115 = getelementptr inbounds [100 x [10 x i8]], [100 x [10 x i8]]* %12, i64 0, i64 %114
  %116 = getelementptr inbounds [10 x i8], [10 x i8]* %115, i64 0, i64 0
  %117 = getelementptr inbounds [10 x i8], [10 x i8]* %13, i64 0, i64 0
  %118 = call i8* @strcpy(i8* %116, i8* %117) #3
  br label %119

119:                                              ; preds = %78, %67
  br label %120

120:                                              ; preds = %119
  %121 = load i32, i32* %2, align 4
  %122 = add nsw i32 %121, 1
  store i32 %122, i32* %2, align 4
  br label %61

123:                                              ; preds = %61
  br label %124

124:                                              ; preds = %123
  %125 = load i32, i32* %8, align 4
  %126 = add nsw i32 %125, 1
  store i32 %126, i32* %8, align 4
  br label %56

127:                                              ; preds = %56
  store i32 0, i32* %2, align 4
  br label %128

128:                                              ; preds = %138, %127
  %129 = load i32, i32* %2, align 4
  %130 = load i32, i32* %4, align 4
  %131 = icmp slt i32 %129, %130
  br i1 %131, label %132, label %141

132:                                              ; preds = %128
  %133 = load i32, i32* %2, align 4
  %134 = sext i32 %133 to i64
  %135 = getelementptr inbounds [100 x [10 x i8]], [100 x [10 x i8]]* %12, i64 0, i64 %134
  %136 = getelementptr inbounds [10 x i8], [10 x i8]* %135, i64 0, i64 0
  %137 = call i32 (i8*, ...) @printf(i8* getelementptr inbounds ([4 x i8], [4 x i8]* @.str.2, i64 0, i64 0), i8* %136)
  br label %138

138:                                              ; preds = %132
  %139 = load i32, i32* %2, align 4
  %140 = add nsw i32 %139, 1
  store i32 %140, i32* %2, align 4
  br label %128

141:                                              ; preds = %128
  store i32 0, i32* %8, align 4
  br label %142

142:                                              ; preds = %152, %141
  %143 = load i32, i32* %8, align 4
  %144 = load i32, i32* %7, align 4
  %145 = icmp slt i32 %143, %144
  br i1 %145, label %146, label %155

146:                                              ; preds = %142
  %147 = load i32, i32* %8, align 4
  %148 = sext i32 %147 to i64
  %149 = getelementptr inbounds [100 x [10 x i8]], [100 x [10 x i8]]* %14, i64 0, i64 %148
  %150 = getelementptr inbounds [10 x i8], [10 x i8]* %149, i64 0, i64 0
  %151 = call i32 (i8*, ...) @printf(i8* getelementptr inbounds ([4 x i8], [4 x i8]* @.str.2, i64 0, i64 0), i8* %150)
  br label %152

152:                                              ; preds = %146
  %153 = load i32, i32* %8, align 4
  %154 = add nsw i32 %153, 1
  store i32 %154, i32* %8, align 4
  br label %142

155:                                              ; preds = %142
  ret i32 0
}

declare dso_local i32 @__isoc99_scanf(i8*, ...) #1

; Function Attrs: nounwind
declare dso_local i8* @strcpy(i8*, i8*) #2

declare dso_local i32 @printf(i8*, ...) #1


!llvm.module.flags = !{!0}
!llvm.ident = !{!1}

!0 = !{i32 1, !"wchar_size", i32 4}
!1 = !{!"clang version 10.0.0-4ubuntu1 "}
